ccopy_reg
_reconstructor
p0
(ceasydict
EasyDict
p1
c__builtin__
dict
p2
(dp3
S'stickyAirDepth'
p4
F100000.0
sS'lowerMantleEnergy'
p5
F200000.0
sS'viscosityMax'
p6
F1e+25
sS'diffusionVolume'
p7
F5e-06
sS'frictionCrust'
p8
F0.02
sS'viscosityScale'
p9
F1e+20
sS'crustViscEndWidth'
p10
F20000.0
sS'dislocationVolume'
p11
F1.08e-05
sS'crustMantleDepth'
p12
F250000.0
sS'refExpansivity'
p13
F3e-05
sS'diffusionEnergy'
p14
F300000.0
sS'deltaTemp'
p15
F1300.0
sS'tempGradMantle'
p16
F0.0003699696000000001
sS'viscosityMaxCrust'
p17
F1e+20
sS'velCmY'
p18
F4.0
sS'lowerMantlePreExp'
p19
F4.23e-15
sS'gasConstant'
p20
F8.314
sS'lowerMantleDepth'
p21
F660000.0
sS'cohesionCrust'
p22
F1000000.0
sS'interfaceEnergy'
p23
F150000.0
sS'refDensity'
p24
F3300.0
sS'depth'
p25
F1000000.0
sS'viscosityMin'
p26
F1e+18
sS'refGravity'
p27
F9.8
sS'refDiffusivity'
p28
F1e-06
sS'dislocationPreExp'
p29
F5e-16
sS'theta'
p30
I40
sS'crustLimitDepth'
p31
F650000.0
sS'rightRidge'
p32
F5000000.0
sS'subZoneLoc'
p33
F-100000.0
sS'specificHeat'
p34
F1250.0
sS'lowerMantleVolume'
p35
F1.5e-06
sS'leftRidge'
p36
F-5000000.0
sS'interfaceVolume'
p37
F5e-05
sS'lowerMantleViscFac'
p38
F30.0
sS'maxDepth'
p39
F150000.0
sS'tempGradSlab'
p40
F0.00015828960000000003
sS'potentialTemp'
p41
F1573.0
sS'plateMaxAge'
p42
F100000000.0
sS'faultThickness'
p43
F10000.0
sS'opMaxAge'
p44
F35000000.0
sS'slabMaxAge'
p45
F70000000.0
sS'yieldStressMax'
p46
F300000000.0
sS'dislocationExponent'
p47
F3.5
sS'surfaceTemp'
p48
F273.0
sS'viscosityMinCrust'
p49
F1e+20
sS'interfacePreExp'
p50
F0.01068
sS'radiusOfCurv'
p51
F250000.0
sS'cohesionMantle'
p52
F20000000.0
sS'frictionMantle'
p53
F0.2
sS'viscosityStickyAir'
p54
F1e+19
sS'crustViscCutoffDepth'
p55
F100000.0
sS'dislocationEnergy'
p56
F540000.0
sS'mantleCrustDepth'
p57
F10000.0
sS'diffusionPreExp'
p58
F5.34e-10
stp59
Rp60
(dp61
g4
F100000.0
sg40
F0.00015828960000000003
sg32
F5000000.0
sg7
F5e-06
sg8
F0.02
sg9
F1e+20
sg10
F20000.0
sg11
F1.08e-05
sg53
F0.2
sg13
F3e-05
sg14
F300000.0
sg15
F1300.0
sg16
F0.0003699696000000001
sg51
F250000.0
sg17
F1e+20
sg18
F4.0
sg19
F4.23e-15
sg20
F8.314
sg21
F660000.0
sg55
F100000.0
sg23
F150000.0
sg24
F3300.0
sg25
F1000000.0
sg26
F1e+18
sg27
F9.8
sg28
F1e-06
sg29
F5e-16
sg30
I40
sg31
F650000.0
sg6
F1e+25
sg33
F-100000.0
sg35
F1.5e-06
sg36
F-5000000.0
sg37
F5e-05
sg39
F150000.0
sg42
F100000000.0
sg43
F10000.0
sg41
F1573.0
sg12
F250000.0
sg22
F1000000.0
sg44
F35000000.0
sg45
F70000000.0
sg46
F300000000.0
sg47
F3.5
sg48
F273.0
sg49
F1e+20
sg50
F0.01068
sg52
F20000000.0
sg5
F200000.0
sg38
F30.0
sg54
F1e+19
sg34
F1250.0
sg56
F540000.0
sg57
F10000.0
sg58
F5.34e-10
sb.