ccopy_reg
_reconstructor
p0
(ceasydict
EasyDict
p1
c__builtin__
dict
p2
(dp3
S'ppc'
p4
I25
sS'diffuseInitial'
p5
F5000000.0
sS'refineMeshStatic'
p6
I01
sS'deepFcFac'
p7
F0.0
sS'specialCaseL'
p8
I0
sS'spfixed'
p9
I00
sS'stickyAir'
p10
I00
sS'druckerAlpha'
p11
F0.0
sS'druckerAlphaFault'
p12
F0.0
sS'thermal'
p13
I01
sS'maxSteps'
p14
I20000
sS'deepCohesionFac'
p15
F1.0
sS'specialCaseU'
p16
I0
sS'swarmInitialFac'
p17
F0.6
sS'checkpointEvery'
p18
I50
sS'opuniform'
p19
I00
sS'buoyancyFac'
p20
F1.0
sS'res'
p21
I32
sS'courantFac'
p22
F0.5
sS'compBuoyancy'
p23
I00
sS'penaltyMethod'
p24
I01
sS'spuniform'
p25
I00
sS'secInvFac'
p26
F1.0
sS'swarmUpdate'
p27
I10
sS'nltol'
p28
F0.01
sS'opfixed'
p29
I00
sS'filesMy'
p30
F1000000.0
sS'aspectRatio'
p31
F5.0
sS'elementType'
p32
S'Q1/dQ0'
p33
stp34
Rp35
(dp36
g4
I25
sg5
F5000000.0
sg6
I01
sg8
I0
sg9
I00
sg11
F0.0
sg12
F0.0
sg13
I01
sg14
I20000
sg15
F1.0
sg16
I0
sg19
I00
sg21
I32
sg22
F0.5
sg29
I00
sg7
F0.0
sg30
F1000000.0
sg32
g33
sg17
F0.6
sg10
I00
sg28
F0.01
sg18
I50
sg20
F1.0
sg23
I00
sg24
I01
sg25
I00
sg27
I10
sg31
F5.0
sg26
F1.0
sb.