ccopy_reg
_reconstructor
p0
(ceasydict
EasyDict
p1
c__builtin__
dict
p2
(dp3
S'stress'
p4
F11.890606420927467
sS'pressureDepthGrad'
p5
F7887402600.000001
sS'strainRate'
p6
F1.1890606420927467e-19
sS'lengthScale'
p7
F2900000.0
sS'viscosityScale'
p8
F1e+20
sS'velocity'
p9
F3.4482758620689656e-13
sS'lithGrad'
p10
F1.2678444992778736e-10
sS'actVolume'
p11
F1.1524321327276991e-07
sS'deltaTemp'
p12
F1300.0
sS'time'
p13
F8.41e+18
sS'actEnergy'
p14
F10808.2
sS'diffusionPreExp'
p15
F1e-20
stp16
Rp17
(dp18
g4
F11.890606420927467
sg5
F7887402600.000001
sg6
F1.1890606420927467e-19
sg7
F2900000.0
sg14
F10808.2
sg8
F1e+20
sg10
F1.2678444992778736e-10
sg11
F1.1524321327276991e-07
sg12
F1300.0
sg13
F8.41e+18
sg9
F3.4482758620689656e-13
sg15
F1e-20
sb.